target datalayout = "e-m:e-p270:32:32-p271:32:32-p272:64:64-i64:64-i128:128-f80:128-n8:16:32:64-S128"
target triple = "x86_64-pc-linux-gnu"

%struct.ParseContext_ = type { %struct.TokenData, i32, %union.SourceSpan, %union.SourceSpan, ptr, %struct.Lexer }
%struct.TokenData = type { ptr, i64, %union.anon.86 }
%union.anon.86 = type { %struct.anon.89 }
%struct.anon.89 = type { %struct.Int128_, i8 }
%struct.Int128_ = type { i64, i64 }
%union.SourceSpan = type { i64 }
%struct.Lexer = type { ptr, ptr, ptr, ptr, i32, i32, ptr, ptr, ptr, %struct.TokenData, %union.SourceSpan, i32, i32 }
%struct.Expr_ = type { ptr, %union.SourceSpan, i16, %union.anon.30 }
%union.anon.30 = type { %struct.ExprAnySwitch }
%struct.ExprAnySwitch = type { i8, %union.anon.32 }
%union.anon.32 = type { %struct.anon.33 }
%struct.anon.33 = type { ptr, %union.SourceSpan, ptr }
%struct.VHeader_ = type { i32, i32, [0 x i8] }

@poisoned_expr = external global ptr, align 8
@.str.22 = private unnamed_addr constant [15 x i8] c"Expected '%s'.\00", align 1

; Function Attrs: nounwind uwtable
define internal ptr @vec_new_(i64 noundef %0, i64 noundef %1) #0 {
  %3 = alloca i64, align 8
  %4 = alloca i64, align 8
  %5 = alloca ptr, align 8
  store i64 %0, ptr %3, align 8
  store i64 %1, ptr %4, align 8
  %6 = load i64, ptr %3, align 8
  %7 = load i64, ptr %4, align 8
  %8 = mul i64 %6, %7
  %9 = add i64 %8, 8
  %10 = call ptr @calloc_arena(i64 noundef %9)
  store ptr %10, ptr %5, align 8
  %11 = load i64, ptr %4, align 8
  %12 = trunc i64 %11 to i32
  %13 = load ptr, ptr %5, align 8
  %14 = getelementptr inbounds %struct.VHeader_, ptr %13, i32 0, i32 1
  store i32 %12, ptr %14, align 4
  %15 = load ptr, ptr %5, align 8
  ret ptr %15
}

; Function Attrs: nounwind uwtable
define internal ptr @expand_(ptr noundef %0, i64 noundef %1) #0 {
  %3 = alloca ptr, align 8
  %4 = alloca i64, align 8
  %5 = alloca ptr, align 8
  %6 = alloca ptr, align 8
  %7 = alloca i64, align 8
  store ptr %0, ptr %3, align 8
  store i64 %1, ptr %4, align 8
  %8 = load ptr, ptr %3, align 8
  %9 = icmp ne ptr %8, null
  br i1 %9, label %13, label %10

10:                                               ; preds = %2
  %11 = load i64, ptr %4, align 8
  %12 = call ptr @vec_new_(i64 noundef %11, i64 noundef 8)
  store ptr %12, ptr %5, align 8
  br label %16

13:                                               ; preds = %2
  %14 = load ptr, ptr %3, align 8
  %15 = getelementptr inbounds %struct.VHeader_, ptr %14, i64 -1
  store ptr %15, ptr %5, align 8
  br label %16

16:                                               ; preds = %13, %10
  %17 = load ptr, ptr %5, align 8
  %18 = getelementptr inbounds %struct.VHeader_, ptr %17, i32 0, i32 0
  %19 = load i32, ptr %18, align 4
  %20 = load ptr, ptr %5, align 8
  %21 = getelementptr inbounds %struct.VHeader_, ptr %20, i32 0, i32 1
  %22 = load i32, ptr %21, align 4
  %23 = icmp eq i32 %19, %22
  br i1 %23, label %24, label %49

24:                                               ; preds = %16
  %25 = load i64, ptr %4, align 8
  %26 = load ptr, ptr %5, align 8
  %27 = getelementptr inbounds %struct.VHeader_, ptr %26, i32 0, i32 1
  %28 = load i32, ptr %27, align 4
  %29 = shl i32 %28, 1
  %30 = zext i32 %29 to i64
  %31 = call ptr @vec_new_(i64 noundef %25, i64 noundef %30)
  store ptr %31, ptr %6, align 8
  %32 = load i64, ptr %4, align 8
  %33 = load ptr, ptr %5, align 8
  %34 = getelementptr inbounds %struct.VHeader_, ptr %33, i32 0, i32 1
  %35 = load i32, ptr %34, align 4
  %36 = zext i32 %35 to i64
  %37 = mul i64 %32, %36
  %38 = add i64 %37, 8
  store i64 %38, ptr %7, align 8
  %39 = load ptr, ptr %6, align 8
  %40 = load ptr, ptr %5, align 8
  %41 = load i64, ptr %7, align 8
  call void @llvm.memcpy.p0.p0.i64(ptr align 4 %39, ptr align 4 %40, i64 %41, i1 false)
  %42 = load ptr, ptr %6, align 8
  store ptr %42, ptr %5, align 8
  %43 = load ptr, ptr %5, align 8
  %44 = getelementptr inbounds %struct.VHeader_, ptr %43, i32 0, i32 1
  %45 = load i32, ptr %44, align 4
  %46 = shl i32 %45, 1
  %47 = load ptr, ptr %6, align 8
  %48 = getelementptr inbounds %struct.VHeader_, ptr %47, i32 0, i32 1
  store i32 %46, ptr %48, align 4
  br label %49

49:                                               ; preds = %24, %16
  %50 = load ptr, ptr %5, align 8
  %51 = getelementptr inbounds %struct.VHeader_, ptr %50, i32 0, i32 0
  %52 = load i32, ptr %51, align 4
  %53 = add i32 %52, 1
  store i32 %53, ptr %51, align 4
  %54 = load ptr, ptr %5, align 8
  %55 = getelementptr inbounds %struct.VHeader_, ptr %54, i64 1
  ret ptr %55
}

; Function Attrs: nounwind uwtable
define dso_local ptr @parse_expr(ptr noundef %0) #0 {
  %2 = alloca ptr, align 8
  store ptr %0, ptr %2, align 8
  %3 = load ptr, ptr %2, align 8
  %4 = call ptr @parse_precedence(ptr noundef %3, i32 noundef 1)
  ret ptr %4
}

; Function Attrs: nounwind uwtable
define internal ptr @parse_ct_defined(ptr noundef %0, ptr noundef %1) #0 {
  %3 = alloca ptr, align 8
  %4 = alloca i32, align 4
  %5 = alloca i1, align 1
  %6 = alloca ptr, align 8
  %7 = alloca i32, align 4
  %8 = alloca ptr, align 8
  %9 = alloca i32, align 4
  %10 = alloca i1, align 1
  %11 = alloca ptr, align 8
  %12 = alloca i32, align 4
  %13 = alloca i32, align 4
  %14 = alloca ptr, align 8
  %15 = alloca ptr, align 8
  %16 = alloca ptr, align 8
  %17 = alloca ptr, align 8
  %18 = alloca ptr, align 8
  %19 = alloca ptr, align 8
  %20 = alloca ptr, align 8
  %21 = alloca ptr, align 8
  %22 = alloca ptr, align 8
  %23 = alloca ptr, align 8
  %24 = alloca ptr, align 8
  store ptr %0, ptr %18, align 8
  store ptr %1, ptr %19, align 8
  %25 = load ptr, ptr %18, align 8
  %26 = getelementptr inbounds %struct.ParseContext_, ptr %25, i32 0, i32 2
  %27 = getelementptr inbounds %union.SourceSpan, ptr %26, i32 0, i32 0
  %28 = load i64, ptr %27, align 8
  %29 = call ptr @expr_new(i32 noundef 20, i64 %28)
  store ptr %29, ptr %20, align 8
  %30 = load ptr, ptr %18, align 8
  call void @advance(ptr noundef %30)
  store ptr null, ptr %21, align 8
  br label %31

31:                                               ; preds = %2
  %32 = load ptr, ptr %18, align 8
  store ptr %32, ptr %6, align 8
  store i32 19, ptr %7, align 4
  %33 = load ptr, ptr %6, align 8
  %34 = load i32, ptr %7, align 4
  store ptr %33, ptr %3, align 8
  store i32 %34, ptr %4, align 4
  %35 = load ptr, ptr %3, align 8
  %36 = getelementptr inbounds %struct.ParseContext_, ptr %35, i32 0, i32 1
  %37 = load i32, ptr %36, align 8
  %38 = load i32, ptr %4, align 4
  %39 = icmp eq i32 %37, %38
  br i1 %39, label %40, label %41

40:                                               ; preds = %31
  store i1 true, ptr %5, align 1
  br label %47

41:                                               ; preds = %31
  %42 = load ptr, ptr %6, align 8
  %43 = getelementptr inbounds %struct.ParseContext_, ptr %42, i32 0, i32 2
  %44 = load i32, ptr %7, align 4
  %45 = call ptr @token_type_to_string(i32 noundef %44) #5
  %46 = load i64, ptr %43, align 8
  call void (i64, ptr, ...) @sema_error_at(i64 %46, ptr noundef @.str.22, ptr noundef %45) #5
  store i1 false, ptr %5, align 1
  br label %47

47:                                               ; preds = %41, %40
  %48 = load i1, ptr %5, align 1
  br i1 %48, label %51, label %49

49:                                               ; preds = %47
  %50 = load ptr, ptr @poisoned_expr, align 8
  store ptr %50, ptr %17, align 8
  br label %130

51:                                               ; preds = %47
  %52 = load ptr, ptr %18, align 8
  call void @advance(ptr noundef %52)
  br label %53

53:                                               ; preds = %51
  br label %54

54:                                               ; preds = %124, %53
  %55 = load ptr, ptr %18, align 8
  %56 = call zeroext i1 @try_consume(ptr noundef %55, i32 noundef 26)
  %57 = xor i1 %56, true
  br i1 %57, label %58, label %125

58:                                               ; preds = %54
  %59 = load ptr, ptr %18, align 8
  %60 = call ptr @parse_expr(ptr noundef %59)
  store ptr %60, ptr %22, align 8
  %61 = load ptr, ptr %22, align 8
  store ptr %61, ptr %16, align 8
  %62 = load ptr, ptr %16, align 8
  %63 = icmp eq ptr %62, null
  br i1 %63, label %71, label %64

64:                                               ; preds = %58
  %65 = load ptr, ptr %16, align 8
  %66 = getelementptr inbounds %struct.Expr_, ptr %65, i32 0, i32 2
  %67 = load i16, ptr %66, align 8
  %68 = and i16 %67, 255
  %69 = zext i16 %68 to i32
  %70 = icmp ne i32 %69, 0
  br label %71

71:                                               ; preds = %64, %58
  %72 = phi i1 [ true, %58 ], [ %70, %64 ]
  br i1 %72, label %75, label %73

73:                                               ; preds = %71
  %74 = load ptr, ptr @poisoned_expr, align 8
  store ptr %74, ptr %17, align 8
  br label %130

75:                                               ; preds = %71
  %76 = load ptr, ptr %22, align 8
  store ptr %76, ptr %23, align 8
  br label %77

77:                                               ; preds = %75
  %78 = load ptr, ptr %21, align 8
  %79 = call ptr @expand_(ptr noundef %78, i64 noundef 8)
  store ptr %79, ptr %24, align 8
  %80 = load ptr, ptr %24, align 8
  store ptr %80, ptr %21, align 8
  %81 = load ptr, ptr %23, align 8
  %82 = load ptr, ptr %21, align 8
  %83 = load ptr, ptr %21, align 8
  store ptr %83, ptr %14, align 8
  %84 = load ptr, ptr %14, align 8
  %85 = icmp ne ptr %84, null
  br i1 %85, label %87, label %86

86:                                               ; preds = %77
  store i32 0, ptr %13, align 4
  br label %92

87:                                               ; preds = %77
  %88 = load ptr, ptr %14, align 8
  store ptr %88, ptr %15, align 8
  %89 = load ptr, ptr %15, align 8
  %90 = getelementptr inbounds %struct.VHeader_, ptr %89, i64 -1
  %91 = load i32, ptr %90, align 4
  store i32 %91, ptr %13, align 4
  br label %92

92:                                               ; preds = %87, %86
  %93 = load i32, ptr %13, align 4
  %94 = sub i32 %93, 1
  %95 = zext i32 %94 to i64
  %96 = getelementptr inbounds ptr, ptr %82, i64 %95
  store ptr %81, ptr %96, align 8
  br label %97

97:                                               ; preds = %92
  %98 = load ptr, ptr %18, align 8
  %99 = call zeroext i1 @try_consume(ptr noundef %98, i32 noundef 8)
  br i1 %99, label %124, label %100

100:                                              ; preds = %97
  br label %101

101:                                              ; preds = %100
  %102 = load ptr, ptr %18, align 8
  store ptr %102, ptr %11, align 8
  store i32 26, ptr %12, align 4
  %103 = load ptr, ptr %11, align 8
  %104 = load i32, ptr %12, align 4
  store ptr %103, ptr %8, align 8
  store i32 %104, ptr %9, align 4
  %105 = load ptr, ptr %8, align 8
  %106 = getelementptr inbounds %struct.ParseContext_, ptr %105, i32 0, i32 1
  %107 = load i32, ptr %106, align 8
  %108 = load i32, ptr %9, align 4
  %109 = icmp eq i32 %107, %108
  br i1 %109, label %110, label %111

110:                                              ; preds = %101
  store i1 true, ptr %10, align 1
  br label %117

111:                                              ; preds = %101
  %112 = load ptr, ptr %11, align 8
  %113 = getelementptr inbounds %struct.ParseContext_, ptr %112, i32 0, i32 2
  %114 = load i32, ptr %12, align 4
  %115 = call ptr @token_type_to_string(i32 noundef %114) #5
  %116 = load i64, ptr %113, align 8
  call void (i64, ptr, ...) @sema_error_at(i64 %116, ptr noundef @.str.22, ptr noundef %115) #5
  store i1 false, ptr %10, align 1
  br label %117

117:                                              ; preds = %111, %110
  %118 = load i1, ptr %10, align 1
  br i1 %118, label %121, label %119

119:                                              ; preds = %117
  %120 = load ptr, ptr @poisoned_expr, align 8
  store ptr %120, ptr %17, align 8
  br label %130

121:                                              ; preds = %117
  %122 = load ptr, ptr %18, align 8
  call void @advance(ptr noundef %122)
  br label %123

123:                                              ; preds = %121
  br label %125

124:                                              ; preds = %97
  br label %54, !llvm.loop !22

125:                                              ; preds = %123, %54
  %126 = load ptr, ptr %21, align 8
  %127 = load ptr, ptr %20, align 8
  %128 = getelementptr inbounds %struct.Expr_, ptr %127, i32 0, i32 3
  store ptr %126, ptr %128, align 8
  %129 = load ptr, ptr %20, align 8
  store ptr %129, ptr %17, align 8
  br label %130

130:                                              ; preds = %125, %119, %73, %49
  %131 = load ptr, ptr %17, align 8
  ret ptr %131
}