; Function Attrs: nounwind uwtable
define internal ptr @parse_ct_defined(ptr noundef %0, ptr nocapture readnone %1) #1 {
  %3 = getelementptr inbounds i8, ptr %0, i64 48
  %4 = load i64, ptr %3, align 8
  %5 = tail call ptr @expr_new(i32 noundef 20, i64 %4) #8
  tail call void @advance(ptr noundef %0) #8
  %6 = getelementptr inbounds i8, ptr %0, i64 40
  %7 = load i32, ptr %6, align 8
  %8 = icmp eq i32 %7, 19
  br i1 %8, label %.critedge47, label %9

9:                                                ; preds = %2
  %10 = tail call ptr @token_type_to_string(i32 noundef 19) #8
  %11 = load i64, ptr %3, align 8
  tail call void (i64, ptr, ...) @sema_error_at(i64 %11, ptr noundef nonnull @.str.22, ptr noundef %10) #8
  %12 = load ptr, ptr @poisoned_expr, align 8
  br label %62

.critedge47:                                      ; preds = %2
  tail call void @advance(ptr noundef nonnull %0) #8
  br label %13

13:                                               ; preds = %47, %.critedge47
  %.041 = phi ptr [ null, %.critedge47 ], [ %50, %47 ]
  %14 = tail call zeroext i1 @try_consume(ptr noundef %0, i32 noundef 26) #8
  br i1 %14, label %.loopexit, label %15

15:                                               ; preds = %13
  %16 = tail call fastcc ptr @parse_precedence(ptr noundef %0, i32 noundef 1)
  %17 = icmp eq ptr %16, null
  br i1 %17, label %.critedge, label %18

18:                                               ; preds = %15
  %19 = getelementptr inbounds i8, ptr %16, i64 16
  %20 = load i16, ptr %19, align 8
  %21 = and i16 %20, 255
  %.not = icmp eq i16 %21, 0
  br i1 %.not, label %22, label %.critedge

22:                                               ; preds = %18
  %23 = load ptr, ptr @poisoned_expr, align 8
  br label %62

.critedge:                                        ; preds = %15, %18
  %.not.i = icmp eq ptr %.041, null
  br i1 %.not.i, label %24, label %27

24:                                               ; preds = %.critedge
  %25 = tail call ptr @calloc_arena(i64 noundef 72) #8
  %26 = getelementptr inbounds i8, ptr %25, i64 4
  store i32 8, ptr %26, align 4
  br label %29

27:                                               ; preds = %.critedge
  %28 = getelementptr inbounds i8, ptr %.041, i64 -8
  %.phi.trans.insert.i = getelementptr inbounds i8, ptr %.041, i64 -4
  %.pre.i = load i32, ptr %.phi.trans.insert.i, align 4
  br label %29

29:                                               ; preds = %27, %24
  %30 = phi i32 [ %.pre.i, %27 ], [ 8, %24 ]
  %.0.i = phi ptr [ %28, %27 ], [ %25, %24 ]
  %31 = load i32, ptr %.0.i, align 4
  %32 = icmp eq i32 %31, %30
  br i1 %32, label %33, label %47

33:                                               ; preds = %29
  %34 = getelementptr inbounds i8, ptr %.0.i, i64 4
  %35 = shl i32 %30, 1
  %36 = zext i32 %35 to i64
  %37 = shl nuw nsw i64 %36, 3
  %38 = or disjoint i64 %37, 8
  %39 = tail call ptr @calloc_arena(i64 noundef %38) #8
  %40 = getelementptr inbounds i8, ptr %39, i64 4
  store i32 %35, ptr %40, align 4
  %41 = load i32, ptr %34, align 4
  %42 = zext i32 %41 to i64
  %43 = shl nuw nsw i64 %42, 3
  %44 = add nuw nsw i64 %43, 8
  tail call void @llvm.memcpy.p0.p0.i64(ptr noundef nonnull align 4 dereferenceable(1) %39, ptr noundef nonnull align 4 dereferenceable(1) %.0.i, i64 %44, i1 false)
  %45 = load i32, ptr %40, align 4
  %46 = shl i32 %45, 1
  store i32 %46, ptr %40, align 4
  %.pre18.i = load i32, ptr %39, align 4
  br label %47

47:                                               ; preds = %29, %33
  %48 = phi i32 [ %.pre18.i, %33 ], [ %31, %29 ]
  %.1.i = phi ptr [ %39, %33 ], [ %.0.i, %29 ]
  %49 = add i32 %48, 1
  store i32 %49, ptr %.1.i, align 4
  %50 = getelementptr inbounds i8, ptr %.1.i, i64 8
  %51 = zext i32 %48 to i64
  %52 = getelementptr inbounds ptr, ptr %50, i64 %51
  store ptr %16, ptr %52, align 8
  %53 = tail call zeroext i1 @try_consume(ptr noundef %0, i32 noundef 8) #8
  br i1 %53, label %13, label %54, !llvm.loop !31

54:                                               ; preds = %47
  %55 = load i32, ptr %6, align 8
  %56 = icmp eq i32 %55, 26
  br i1 %56, label %.critedge49, label %57

57:                                               ; preds = %54
  %58 = tail call ptr @token_type_to_string(i32 noundef 26) #8
  %59 = load i64, ptr %3, align 8
  tail call void (i64, ptr, ...) @sema_error_at(i64 %59, ptr noundef nonnull @.str.22, ptr noundef %58) #8
  %60 = load ptr, ptr @poisoned_expr, align 8
  br label %62

.critedge49:                                      ; preds = %54
  tail call void @advance(ptr noundef nonnull %0) #8
  br label %.loopexit

.loopexit:                                        ; preds = %13, %.critedge49
  %.1 = phi ptr [ %50, %.critedge49 ], [ %.041, %13 ]
  %61 = getelementptr inbounds i8, ptr %5, i64 24
  store ptr %.1, ptr %61, align 8
  br label %62

62:                                               ; preds = %.loopexit, %57, %22, %9
  %.042 = phi ptr [ %5, %.loopexit ], [ %60, %57 ], [ %23, %22 ], [ %12, %9 ]
  ret ptr %.042
}